target datalayout = "e-m:e-p270:32:32-p271:32:32-p272:64:64-i64:64-i128:128-f80:128-n8:16:32:64-S128"
target triple = "x86_64-pc-linux-gnu"

%class.PreferenceEditorFrame = type { %class.AccordionFrame, ptr, ptr, ptr, i32, %class.QString, ptr }
%class.AccordionFrame = type { %class.QFrame, i32, ptr }
%class.QFrame = type { %class.QWidget }
%class.QWidget = type { %class.QObject, %class.QPaintDevice.base, ptr }
%class.QObject = type { ptr, %class.QScopedPointer }
%class.QScopedPointer = type { ptr }
%class.QPaintDevice.base = type <{ ptr, i16 }>
%class.QString = type { %struct.QArrayDataPointer }
%struct.QArrayDataPointer = type { ptr, ptr, i64 }
%class.Ui_PreferenceEditorFrame = type { ptr, ptr, ptr, ptr, ptr, ptr, ptr, ptr }
%class.QStringView = type { i64, ptr }

@_ZN7QString6_emptyE = external constant i16, align 2

; Function Attrs: mustprogress nounwind uwtable
define linkonce_odr noundef ptr @_ZN11QStringView10castHelperI5QCharEEPKDsPKT_(ptr noundef %0) #4 comdat align 2 {
  %2 = alloca ptr, align 8
  store ptr %0, ptr %2, align 8
  %3 = load ptr, ptr %2, align 8
  ret ptr %3
}

; Function Attrs: mustprogress nounwind uwtable
define linkonce_odr noundef ptr @_ZNK17QArrayDataPointerIDsE4dataEv(ptr noundef nonnull align 8 dereferenceable(24) %0) #4 comdat align 2 {
  %2 = alloca ptr, align 8
  store ptr %0, ptr %2, align 8
  %3 = load ptr, ptr %2, align 8
  %4 = getelementptr inbounds %struct.QArrayDataPointer, ptr %3, i32 0, i32 1
  %5 = load ptr, ptr %4, align 8
  ret ptr %5
}

; Function Attrs: mustprogress nounwind uwtable
define linkonce_odr noundef zeroext i1 @_ZNK17QArrayDataPointerIDsE6isNullEv(ptr noundef nonnull align 8 dereferenceable(24) %0) #4 comdat align 2 {
  %2 = alloca ptr, align 8
  store ptr %0, ptr %2, align 8
  %3 = load ptr, ptr %2, align 8
  %4 = getelementptr inbounds %struct.QArrayDataPointer, ptr %3, i32 0, i32 1
  %5 = load ptr, ptr %4, align 8
  %6 = icmp ne ptr %5, null
  %7 = xor i1 %6, true
  ret i1 %7
}

; Function Attrs: mustprogress nounwind uwtable
define linkonce_odr noundef ptr @_ZNK17QArrayDataPointerIDsEptEv(ptr noundef nonnull align 8 dereferenceable(24) %0) #4 comdat align 2 {
  %2 = alloca ptr, align 8
  store ptr %0, ptr %2, align 8
  %3 = load ptr, ptr %2, align 8
  ret ptr %3
}

; Function Attrs: noreturn nounwind uwtable
define linkonce_odr hidden void @__clang_call_terminate(ptr noundef %0) #7 comdat {
  %2 = call ptr @__cxa_begin_catch(ptr %0) #15
  call void @_ZSt9terminatev() #17
  unreachable
}

; Function Attrs: mustprogress nounwind uwtable
define linkonce_odr void @_ZN11QStringViewC2I5QCharTnNSt9enable_ifIXsr9QtPrivate20IsCompatibleCharTypeIT_EE5valueEbE4typeELb1EEEPKS3_x(ptr noundef nonnull align 8 dereferenceable(16) %0, ptr noundef %1, i64 noundef %2) unnamed_addr #4 comdat align 2 {
  %4 = alloca ptr, align 8
  %5 = alloca ptr, align 8
  %6 = alloca i64, align 8
  store ptr %0, ptr %4, align 8
  store ptr %1, ptr %5, align 8
  store i64 %2, ptr %6, align 8
  %7 = load ptr, ptr %4, align 8
  %8 = getelementptr inbounds %class.QStringView, ptr %7, i32 0, i32 0
  %9 = load i64, ptr %6, align 8
  store i64 %9, ptr %8, align 8
  %10 = getelementptr inbounds %class.QStringView, ptr %7, i32 0, i32 1
  %11 = load ptr, ptr %5, align 8
  %12 = call noundef ptr @_ZN11QStringView10castHelperI5QCharEEPKDsPKT_(ptr noundef %11) #15
  store ptr %12, ptr %10, align 8
  ret void
}

; Function Attrs: mustprogress nounwind uwtable
define linkonce_odr noundef i64 @_ZNK7QString4sizeEv(ptr noundef nonnull align 8 dereferenceable(24) %0) #4 comdat align 2 {
  %2 = alloca ptr, align 8
  store ptr %0, ptr %2, align 8
  %3 = load ptr, ptr %2, align 8
  %4 = getelementptr inbounds %class.QString, ptr %3, i32 0, i32 0
  %5 = getelementptr inbounds %struct.QArrayDataPointer, ptr %4, i32 0, i32 2
  %6 = load i64, ptr %5, align 8
  ret i64 %6
}

; Function Attrs: mustprogress nounwind uwtable
define linkonce_odr noundef ptr @_ZNK7QString4dataEv(ptr noundef nonnull align 8 dereferenceable(24) %0) #4 comdat align 2 {
  %2 = alloca ptr, align 8
  store ptr %0, ptr %2, align 8
  %3 = load ptr, ptr %2, align 8
  %4 = getelementptr inbounds %class.QString, ptr %3, i32 0, i32 0
  %5 = call noundef ptr @_ZNK17QArrayDataPointerIDsE4dataEv(ptr noundef nonnull align 8 dereferenceable(24) %4) #15
  %6 = icmp ne ptr %5, null
  br i1 %6, label %7, label %10

7:                                                ; preds = %1
  %8 = getelementptr inbounds %class.QString, ptr %3, i32 0, i32 0
  %9 = call noundef ptr @_ZNK17QArrayDataPointerIDsE4dataEv(ptr noundef nonnull align 8 dereferenceable(24) %8) #15
  br label %11

10:                                               ; preds = %1
  br label %11

11:                                               ; preds = %10, %7
  %12 = phi ptr [ %9, %7 ], [ @_ZN7QString6_emptyE, %10 ]
  ret ptr %12
}

; Function Attrs: mustprogress nounwind uwtable
define linkonce_odr noundef zeroext i1 @_ZNK7QString6isNullEv(ptr noundef nonnull align 8 dereferenceable(24) %0) #4 comdat align 2 {
  %2 = alloca ptr, align 8
  store ptr %0, ptr %2, align 8
  %3 = load ptr, ptr %2, align 8
  %4 = getelementptr inbounds %class.QString, ptr %3, i32 0, i32 0
  %5 = call noundef ptr @_ZNK17QArrayDataPointerIDsEptEv(ptr noundef nonnull align 8 dereferenceable(24) %4) #15
  %6 = call noundef zeroext i1 @_ZNK17QArrayDataPointerIDsE6isNullEv(ptr noundef nonnull align 8 dereferenceable(24) %5) #15
  ret i1 %6
}

; Function Attrs: mustprogress uwtable
define linkonce_odr noundef i32 @_ZN7QString17toIntegral_helperIjEET_11QStringViewPbi(i64 %0, ptr %1, ptr noundef %2, i32 noundef %3) #0 comdat align 2 {
  %5 = alloca %class.QStringView, align 8
  %6 = alloca ptr, align 8
  %7 = alloca i32, align 4
  %8 = alloca i64, align 8
  %9 = alloca %class.QStringView, align 8
  %10 = getelementptr inbounds { i64, ptr }, ptr %5, i32 0, i32 0
  store i64 %0, ptr %10, align 8
  %11 = getelementptr inbounds { i64, ptr }, ptr %5, i32 0, i32 1
  store ptr %1, ptr %11, align 8
  store ptr %2, ptr %6, align 8
  store i32 %3, ptr %7, align 4
  call void @llvm.memcpy.p0.p0.i64(ptr align 8 %9, ptr align 8 %5, i64 16, i1 false)
  %12 = load ptr, ptr %6, align 8
  %13 = load i32, ptr %7, align 4
  %14 = getelementptr inbounds { i64, ptr }, ptr %9, i32 0, i32 0
  %15 = load i64, ptr %14, align 8
  %16 = getelementptr inbounds { i64, ptr }, ptr %9, i32 0, i32 1
  %17 = load ptr, ptr %16, align 8
  %18 = call noundef i64 @_ZN7QString17toIntegral_helperE11QStringViewPbj(i64 %15, ptr %17, ptr noundef %12, i32 noundef %13)
  store i64 %18, ptr %8, align 8
  %19 = load i64, ptr %8, align 8
  %20 = trunc i64 %19 to i32
  %21 = zext i32 %20 to i64
  %22 = load i64, ptr %8, align 8
  %23 = icmp ne i64 %21, %22
  br i1 %23, label %24, label %30

24:                                               ; preds = %4
  %25 = load ptr, ptr %6, align 8
  %26 = icmp ne ptr %25, null
  br i1 %26, label %27, label %29

27:                                               ; preds = %24
  %28 = load ptr, ptr %6, align 8
  store i8 0, ptr %28, align 1
  br label %29

29:                                               ; preds = %27, %24
  store i64 0, ptr %8, align 8
  br label %30

30:                                               ; preds = %29, %4
  %31 = load i64, ptr %8, align 8
  %32 = trunc i64 %31 to i32
  ret i32 %32
}

; Function Attrs: mustprogress nounwind uwtable
define linkonce_odr void @_ZN11QStringViewC2I7QStringTnNSt9enable_ifIXsr3std7is_sameIT_S1_EE5valueEbE4typeELb1EEERKS3_(ptr noundef nonnull align 8 dereferenceable(16) %0, ptr noundef nonnull align 8 dereferenceable(24) %1) unnamed_addr #4 comdat align 2 personality ptr @__gxx_personality_v0 {
  %3 = alloca ptr, align 8
  %4 = alloca ptr, align 8
  store ptr %0, ptr %3, align 8
  store ptr %1, ptr %4, align 8
  %5 = load ptr, ptr %3, align 8
  %6 = load ptr, ptr %4, align 8
  %7 = invoke noundef zeroext i1 @_ZNK7QString6isNullEv(ptr noundef nonnull align 8 dereferenceable(24) %6)
          to label %8 unwind label %20

8:                                                ; preds = %2
  br i1 %7, label %9, label %10

9:                                                ; preds = %8
  br label %14

10:                                               ; preds = %8
  %11 = load ptr, ptr %4, align 8
  %12 = invoke noundef ptr @_ZNK7QString4dataEv(ptr noundef nonnull align 8 dereferenceable(24) %11)
          to label %13 unwind label %20

13:                                               ; preds = %10
  br label %14

14:                                               ; preds = %13, %9
  %15 = phi ptr [ null, %9 ], [ %12, %13 ]
  %16 = load ptr, ptr %4, align 8
  %17 = invoke noundef i64 @_ZNK7QString4sizeEv(ptr noundef nonnull align 8 dereferenceable(24) %16)
          to label %18 unwind label %20

18:                                               ; preds = %14
  invoke void @_ZN11QStringViewC2I5QCharTnNSt9enable_ifIXsr9QtPrivate20IsCompatibleCharTypeIT_EE5valueEbE4typeELb1EEEPKS3_x(ptr noundef nonnull align 8 dereferenceable(16) %5, ptr noundef %15, i64 noundef %17)
          to label %19 unwind label %20

19:                                               ; preds = %18
  ret void

20:                                               ; preds = %18, %14, %10, %2
  %21 = landingpad { ptr, i32 }
          catch ptr null
  %22 = extractvalue { ptr, i32 } %21, 0
  call void @__clang_call_terminate(ptr %22) #17
  unreachable
}

; Function Attrs: mustprogress uwtable
define linkonce_odr noundef i32 @_ZNK7QString6toUIntEPbi(ptr noundef nonnull align 8 dereferenceable(24) %0, ptr noundef %1, i32 noundef %2) #0 comdat align 2 {
  %4 = alloca ptr, align 8
  %5 = alloca ptr, align 8
  %6 = alloca i32, align 4
  %7 = alloca %class.QStringView, align 8
  store ptr %0, ptr %4, align 8
  store ptr %1, ptr %5, align 8
  store i32 %2, ptr %6, align 4
  %8 = load ptr, ptr %4, align 8
  call void @_ZN11QStringViewC2I7QStringTnNSt9enable_ifIXsr3std7is_sameIT_S1_EE5valueEbE4typeELb1EEERKS3_(ptr noundef nonnull align 8 dereferenceable(16) %7, ptr noundef nonnull align 8 dereferenceable(24) %8) #15
  %9 = load ptr, ptr %5, align 8
  %10 = load i32, ptr %6, align 4
  %11 = getelementptr inbounds { i64, ptr }, ptr %7, i32 0, i32 0
  %12 = load i64, ptr %11, align 8
  %13 = getelementptr inbounds { i64, ptr }, ptr %7, i32 0, i32 1
  %14 = load ptr, ptr %13, align 8
  %15 = call noundef i32 @_ZN7QString17toIntegral_helperIjEET_11QStringViewPbi(i64 %12, ptr %14, ptr noundef %9, i32 noundef %10)
  ret i32 %15
}

; Function Attrs: mustprogress nounwind uwtable
define linkonce_odr noundef zeroext i1 @_ZNK7QString7isEmptyEv(ptr noundef nonnull align 8 dereferenceable(24) %0) #4 comdat align 2 {
  %2 = alloca ptr, align 8
  store ptr %0, ptr %2, align 8
  %3 = load ptr, ptr %2, align 8
  %4 = getelementptr inbounds %class.QString, ptr %3, i32 0, i32 0
  %5 = getelementptr inbounds %struct.QArrayDataPointer, ptr %4, i32 0, i32 2
  %6 = load i64, ptr %5, align 8
  %7 = icmp eq i64 %6, 0
  ret i1 %7
}

; Function Attrs: mustprogress uwtable
define void @_ZN21PreferenceEditorFrame22uintLineEditTextEditedERK7QString(ptr noundef nonnull align 8 dereferenceable(120) %0, ptr noundef nonnull align 8 dereferenceable(24) %1) #0 align 2 {
  %3 = alloca ptr, align 8
  %4 = alloca ptr, align 8
  %5 = alloca i8, align 1
  %6 = alloca i32, align 4
  store ptr %0, ptr %3, align 8
  store ptr %1, ptr %4, align 8
  %7 = load ptr, ptr %3, align 8
  %8 = load ptr, ptr %4, align 8
  %9 = call noundef zeroext i1 @_ZNK7QString7isEmptyEv(ptr noundef nonnull align 8 dereferenceable(24) %8)
  br i1 %9, label %10, label %24

10:                                               ; preds = %2
  %11 = getelementptr inbounds %class.PreferenceEditorFrame, ptr %7, i32 0, i32 3
  %12 = load ptr, ptr %11, align 8
  %13 = call i32 @prefs_get_uint_value_real(ptr noundef %12, i32 noundef 1)
  %14 = getelementptr inbounds %class.PreferenceEditorFrame, ptr %7, i32 0, i32 4
  store i32 %13, ptr %14, align 8
  %15 = getelementptr inbounds %class.PreferenceEditorFrame, ptr %7, i32 0, i32 1
  %16 = load ptr, ptr %15, align 8
  %17 = getelementptr inbounds %class.Ui_PreferenceEditorFrame, ptr %16, i32 0, i32 4
  %18 = load ptr, ptr %17, align 8
  call void @_ZN14SyntaxLineEdit14setSyntaxStateENS_11SyntaxStateE(ptr noundef nonnull align 8 dereferenceable(185) %18, i32 noundef 0)
  %19 = getelementptr inbounds %class.PreferenceEditorFrame, ptr %7, i32 0, i32 1
  %20 = load ptr, ptr %19, align 8
  %21 = getelementptr inbounds %class.Ui_PreferenceEditorFrame, ptr %20, i32 0, i32 7
  %22 = load ptr, ptr %21, align 8
  %23 = call noundef ptr @_ZNK16QDialogButtonBox6buttonENS_14StandardButtonE(ptr noundef nonnull align 8 dereferenceable(40) %22, i32 noundef 1024)
  call void @_ZN7QWidget10setEnabledEb(ptr noundef nonnull align 8 dereferenceable(40) %23, i1 noundef zeroext true)
  br label %53

24:                                               ; preds = %2
  %25 = load ptr, ptr %4, align 8
  %26 = call noundef i32 @_ZNK7QString6toUIntEPbi(ptr noundef nonnull align 8 dereferenceable(24) %25, ptr noundef %5, i32 noundef 0)
  store i32 %26, ptr %6, align 4
  %27 = load i8, ptr %5, align 1
  %28 = trunc i8 %27 to i1
  br i1 %28, label %29, label %36

29:                                               ; preds = %24
  %30 = load i32, ptr %6, align 4
  %31 = getelementptr inbounds %class.PreferenceEditorFrame, ptr %7, i32 0, i32 4
  store i32 %30, ptr %31, align 8
  %32 = getelementptr inbounds %class.PreferenceEditorFrame, ptr %7, i32 0, i32 1
  %33 = load ptr, ptr %32, align 8
  %34 = getelementptr inbounds %class.Ui_PreferenceEditorFrame, ptr %33, i32 0, i32 4
  %35 = load ptr, ptr %34, align 8
  call void @_ZN14SyntaxLineEdit14setSyntaxStateENS_11SyntaxStateE(ptr noundef nonnull align 8 dereferenceable(185) %35, i32 noundef 4)
  br label %45

36:                                               ; preds = %24
  %37 = getelementptr inbounds %class.PreferenceEditorFrame, ptr %7, i32 0, i32 3
  %38 = load ptr, ptr %37, align 8
  %39 = call i32 @prefs_get_uint_value_real(ptr noundef %38, i32 noundef 1)
  %40 = getelementptr inbounds %class.PreferenceEditorFrame, ptr %7, i32 0, i32 4
  store i32 %39, ptr %40, align 8
  %41 = getelementptr inbounds %class.PreferenceEditorFrame, ptr %7, i32 0, i32 1
  %42 = load ptr, ptr %41, align 8
  %43 = getelementptr inbounds %class.Ui_PreferenceEditorFrame, ptr %42, i32 0, i32 4
  %44 = load ptr, ptr %43, align 8
  call void @_ZN14SyntaxLineEdit14setSyntaxStateENS_11SyntaxStateE(ptr noundef nonnull align 8 dereferenceable(185) %44, i32 noundef 2)
  br label %45

45:                                               ; preds = %36, %29
  %46 = getelementptr inbounds %class.PreferenceEditorFrame, ptr %7, i32 0, i32 1
  %47 = load ptr, ptr %46, align 8
  %48 = getelementptr inbounds %class.Ui_PreferenceEditorFrame, ptr %47, i32 0, i32 7
  %49 = load ptr, ptr %48, align 8
  %50 = call noundef ptr @_ZNK16QDialogButtonBox6buttonENS_14StandardButtonE(ptr noundef nonnull align 8 dereferenceable(40) %49, i32 noundef 1024)
  %51 = load i8, ptr %5, align 1
  %52 = trunc i8 %51 to i1
  call void @_ZN7QWidget10setEnabledEb(ptr noundef nonnull align 8 dereferenceable(40) %50, i1 noundef zeroext %52)
  br label %53

53:                                               ; preds = %45, %10
  ret void
}