; Function Attrs: mustprogress uwtable
define void @_ZN21PreferenceEditorFrame22uintLineEditTextEditedERK7QString(ptr nocapture noundef nonnull align 8 dereferenceable(120) %0, ptr nocapture noundef nonnull readonly align 8 dereferenceable(24) %1) #0 align 2 personality ptr @__gxx_personality_v0 {
  %3 = alloca i8, align 1
  %4 = getelementptr inbounds i8, ptr %1, i64 16
  %5 = load i64, ptr %4, align 8
  %6 = icmp eq i64 %5, 0
  br i1 %6, label %7, label %20

7:                                                ; preds = %2
  %8 = getelementptr inbounds i8, ptr %0, i64 72
  %9 = load ptr, ptr %8, align 8
  %10 = tail call i32 @prefs_get_uint_value_real(ptr noundef %9, i32 noundef 1)
  %11 = getelementptr inbounds i8, ptr %0, i64 80
  store i32 %10, ptr %11, align 8
  %12 = getelementptr inbounds i8, ptr %0, i64 56
  %13 = load ptr, ptr %12, align 8
  %14 = getelementptr inbounds i8, ptr %13, i64 32
  %15 = load ptr, ptr %14, align 8
  tail call void @_ZN14SyntaxLineEdit14setSyntaxStateENS_11SyntaxStateE(ptr noundef nonnull align 8 dereferenceable(185) %15, i32 noundef 0)
  %16 = load ptr, ptr %12, align 8
  %17 = getelementptr inbounds i8, ptr %16, i64 56
  %18 = load ptr, ptr %17, align 8
  %19 = tail call noundef ptr @_ZNK16QDialogButtonBox6buttonENS_14StandardButtonE(ptr noundef nonnull align 8 dereferenceable(40) %18, i32 noundef 1024)
  tail call void @_ZN7QWidget10setEnabledEb(ptr noundef nonnull align 8 dereferenceable(40) %19, i1 noundef zeroext true)
  br label %45

20:                                               ; preds = %2
  %21 = getelementptr inbounds i8, ptr %1, i64 8
  %22 = load ptr, ptr %21, align 8
  %23 = call noundef i64 @_ZN7QString17toIntegral_helperE11QStringViewPbj(i64 %5, ptr %22, ptr noundef nonnull %3, i32 noundef 0)
  %.not.i.i = icmp ult i64 %23, 4294967296
  br i1 %.not.i.i, label %_ZNK7QString6toUIntEPbi.exit, label %_ZNK7QString6toUIntEPbi.exit.thread

_ZNK7QString6toUIntEPbi.exit.thread:              ; preds = %20
  store i8 0, ptr %3, align 1
  br label %27

_ZNK7QString6toUIntEPbi.exit:                     ; preds = %20
  %.pre = load i8, ptr %3, align 1
  %24 = and i8 %.pre, 1
  %25 = icmp eq i8 %24, 0
  %26 = trunc i64 %23 to i32
  br i1 %25, label %27, label %31

27:                                               ; preds = %_ZNK7QString6toUIntEPbi.exit.thread, %_ZNK7QString6toUIntEPbi.exit
  %28 = getelementptr inbounds i8, ptr %0, i64 72
  %29 = load ptr, ptr %28, align 8
  %30 = call i32 @prefs_get_uint_value_real(ptr noundef %29, i32 noundef 1)
  br label %31

31:                                               ; preds = %_ZNK7QString6toUIntEPbi.exit, %27
  %.sink = phi i32 [ %30, %27 ], [ %26, %_ZNK7QString6toUIntEPbi.exit ]
  %.sink5 = phi i32 [ 2, %27 ], [ 4, %_ZNK7QString6toUIntEPbi.exit ]
  %32 = getelementptr inbounds i8, ptr %0, i64 80
  store i32 %.sink, ptr %32, align 8
  %33 = getelementptr inbounds i8, ptr %0, i64 56
  %34 = load ptr, ptr %33, align 8
  %35 = getelementptr inbounds i8, ptr %34, i64 32
  %36 = load ptr, ptr %35, align 8
  call void @_ZN14SyntaxLineEdit14setSyntaxStateENS_11SyntaxStateE(ptr noundef nonnull align 8 dereferenceable(185) %36, i32 noundef %.sink5)
  %37 = getelementptr inbounds i8, ptr %0, i64 56
  %38 = load ptr, ptr %37, align 8
  %39 = getelementptr inbounds i8, ptr %38, i64 56
  %40 = load ptr, ptr %39, align 8
  %41 = call noundef ptr @_ZNK16QDialogButtonBox6buttonENS_14StandardButtonE(ptr noundef nonnull align 8 dereferenceable(40) %40, i32 noundef 1024)
  %42 = load i8, ptr %3, align 1
  %43 = and i8 %42, 1
  %44 = icmp ne i8 %43, 0
  call void @_ZN7QWidget10setEnabledEb(ptr noundef nonnull align 8 dereferenceable(40) %41, i1 noundef zeroext %44)
  br label %45

45:                                               ; preds = %31, %7
  ret void
}